target datalayout = "e-m:e-p270:32:32-p271:32:32-p272:64:64-i64:64-i128:128-f80:128-n8:16:32:64-S128"
target triple = "x86_64-pc-linux-gnu"

; Function Attrs: nounwind uwtable
define internal i32 @deccall2(ptr noundef %0, ptr noundef %1, ptr noundef %2) #0 {
  %4 = alloca i32, align 4
  %5 = alloca ptr, align 8
  %6 = alloca ptr, align 8
  %7 = alloca ptr, align 8
  %8 = alloca ptr, align 8
  %9 = alloca ptr, align 8
  %10 = alloca i32, align 4
  %11 = alloca i32, align 4
  store ptr %0, ptr %5, align 8
  store ptr %1, ptr %6, align 8
  store ptr %2, ptr %7, align 8
  call void @llvm.lifetime.start.p0(i64 8, ptr %8) #9
  call void @llvm.lifetime.start.p0(i64 8, ptr %9) #9
  call void @llvm.lifetime.start.p0(i64 4, ptr %10) #9
  %12 = call ptr @PGTYPESnumeric_new()
  store ptr %12, ptr %8, align 8
  %13 = icmp eq ptr %12, null
  br i1 %13, label %14, label %15

14:                                               ; preds = %3
  store i32 -1211, ptr %4, align 4
  store i32 1, ptr %11, align 4
  br label %44

15:                                               ; preds = %3
  %16 = call ptr @PGTYPESnumeric_new()
  store ptr %16, ptr %9, align 8
  %17 = icmp eq ptr %16, null
  br i1 %17, label %18, label %20

18:                                               ; preds = %15
  %19 = load ptr, ptr %8, align 8
  call void @PGTYPESnumeric_free(ptr noundef %19)
  store i32 -1211, ptr %4, align 4
  store i32 1, ptr %11, align 4
  br label %44

20:                                               ; preds = %15
  %21 = load ptr, ptr %5, align 8
  %22 = load ptr, ptr %8, align 8
  %23 = call i32 @PGTYPESnumeric_from_decimal(ptr noundef %21, ptr noundef %22)
  %24 = icmp ne i32 %23, 0
  br i1 %24, label %25, label %28

25:                                               ; preds = %20
  %26 = load ptr, ptr %8, align 8
  call void @PGTYPESnumeric_free(ptr noundef %26)
  %27 = load ptr, ptr %9, align 8
  call void @PGTYPESnumeric_free(ptr noundef %27)
  store i32 -1211, ptr %4, align 4
  store i32 1, ptr %11, align 4
  br label %44

28:                                               ; preds = %20
  %29 = load ptr, ptr %6, align 8
  %30 = load ptr, ptr %9, align 8
  %31 = call i32 @PGTYPESnumeric_from_decimal(ptr noundef %29, ptr noundef %30)
  %32 = icmp ne i32 %31, 0
  br i1 %32, label %33, label %36

33:                                               ; preds = %28
  %34 = load ptr, ptr %8, align 8
  call void @PGTYPESnumeric_free(ptr noundef %34)
  %35 = load ptr, ptr %9, align 8
  call void @PGTYPESnumeric_free(ptr noundef %35)
  store i32 -1211, ptr %4, align 4
  store i32 1, ptr %11, align 4
  br label %44

36:                                               ; preds = %28
  %37 = load ptr, ptr %7, align 8
  %38 = load ptr, ptr %8, align 8
  %39 = load ptr, ptr %9, align 8
  %40 = call i32 %37(ptr noundef %38, ptr noundef %39)
  store i32 %40, ptr %10, align 4
  %41 = load ptr, ptr %8, align 8
  call void @PGTYPESnumeric_free(ptr noundef %41)
  %42 = load ptr, ptr %9, align 8
  call void @PGTYPESnumeric_free(ptr noundef %42)
  %43 = load i32, ptr %10, align 4
  store i32 %43, ptr %4, align 4
  store i32 1, ptr %11, align 4
  br label %44

44:                                               ; preds = %36, %33, %25, %18, %14
  call void @llvm.lifetime.end.p0(i64 4, ptr %10) #9
  call void @llvm.lifetime.end.p0(i64 8, ptr %9) #9
  call void @llvm.lifetime.end.p0(i64 8, ptr %8) #9
  %45 = load i32, ptr %4, align 4
  ret i32 %45
}

; Function Attrs: nounwind uwtable
define i32 @deccmp(ptr noundef %0, ptr noundef %1) #0 {
  %3 = alloca ptr, align 8
  %4 = alloca ptr, align 8
  store ptr %0, ptr %3, align 8
  store ptr %1, ptr %4, align 8
  %5 = load ptr, ptr %3, align 8
  %6 = load ptr, ptr %4, align 8
  %7 = call i32 @deccall2(ptr noundef %5, ptr noundef %6, ptr noundef @PGTYPESnumeric_cmp)
  ret i32 %7
}