; Function Attrs: nounwind uwtable
define i32 @deccmp(ptr noundef %0, ptr noundef %1) local_unnamed_addr #0 {
  %3 = tail call ptr @PGTYPESnumeric_new() #16
  %4 = icmp eq ptr %3, null
  br i1 %4, label %deccall2.exit, label %5

5:                                                ; preds = %2
  %6 = tail call ptr @PGTYPESnumeric_new() #16
  %7 = icmp eq ptr %6, null
  br i1 %7, label %.sink.split.i, label %8

8:                                                ; preds = %5
  %9 = tail call i32 @PGTYPESnumeric_from_decimal(ptr noundef %0, ptr noundef nonnull %3) #16
  %.not.i = icmp eq i32 %9, 0
  br i1 %.not.i, label %10, label %.sink.split.sink.split.i

10:                                               ; preds = %8
  %11 = tail call i32 @PGTYPESnumeric_from_decimal(ptr noundef %1, ptr noundef nonnull %6) #16
  %.not17.i = icmp eq i32 %11, 0
  br i1 %.not17.i, label %12, label %.sink.split.sink.split.i

12:                                               ; preds = %10
  %13 = tail call i32 @PGTYPESnumeric_cmp(ptr noundef nonnull %3, ptr noundef nonnull %6) #16
  br label %.sink.split.sink.split.i

.sink.split.sink.split.i:                         ; preds = %12, %10, %8
  %.0.ph.ph.i = phi i32 [ %13, %12 ], [ -1211, %8 ], [ -1211, %10 ]
  tail call void @PGTYPESnumeric_free(ptr noundef nonnull %3) #16
  br label %.sink.split.i

.sink.split.i:                                    ; preds = %.sink.split.sink.split.i, %5
  %.sink.i = phi ptr [ %3, %5 ], [ %6, %.sink.split.sink.split.i ]
  %.0.ph.i = phi i32 [ -1211, %5 ], [ %.0.ph.ph.i, %.sink.split.sink.split.i ]
  tail call void @PGTYPESnumeric_free(ptr noundef nonnull %.sink.i) #16
  br label %deccall2.exit

deccall2.exit:                                    ; preds = %2, %.sink.split.i
  %.0.i = phi i32 [ -1211, %2 ], [ %.0.ph.i, %.sink.split.i ]
  ret i32 %.0.i
}